target datalayout = "e-m:e-p270:32:32-p271:32:32-p272:64:64-i64:64-i128:128-f80:128-n8:16:32:64-S128"
target triple = "x86_64-pc-linux-gnu"

%struct.expert_field = type { i32, i32 }

@hf_uftp_destlist = internal global i32 0, align 4
@hf_uftp_dest = internal global i32 0, align 4
@hf_uftp_register = internal global i32 0, align 4
@hf_uftp_register_func = internal global i32 0, align 4
@hf_uftp_register_hlen = internal global i32 0, align 4
@hf_uftp_register_keyinfo_len = internal global i32 0, align 4
@hf_uftp_register_tstamp = internal global i32 0, align 4
@hf_uftp_register_rand2 = internal global i32 0, align 4
@hf_uftp_register_keyinfo = internal global i32 0, align 4
@ett_uftp_register = internal global i32 0, align 4
@ett_uftp_destlist = internal global i32 0, align 4
@ei_uftp_length_invalid = internal global %struct.expert_field zeroinitializer, align 4
@.str.427 = private unnamed_addr constant [19 x i8] c"Invalid length: %d\00", align 1
@.str.429 = private unnamed_addr constant [14 x i8] c"%d bytes (%d)\00", align 1
@.str.432 = private unnamed_addr constant [49 x i8] c"Invalid length, len = %d, hlen = %d, keylen = %d\00", align 1

; Function Attrs: null_pointer_is_valid sspstrong uwtable
define internal void @dissect_uftp_register(ptr noundef %0, ptr noundef %1, ptr noundef %2) #0 {
  %4 = alloca ptr, align 8
  %5 = alloca ptr, align 8
  %6 = alloca ptr, align 8
  %7 = alloca ptr, align 8
  %8 = alloca ptr, align 8
  %9 = alloca ptr, align 8
  %10 = alloca ptr, align 8
  %11 = alloca i32, align 4
  %12 = alloca i32, align 4
  %13 = alloca i16, align 2
  %14 = alloca i16, align 2
  %15 = alloca i16, align 2
  %16 = alloca i32, align 4
  store ptr %0, ptr %4, align 8
  store ptr %1, ptr %5, align 8
  store ptr %2, ptr %6, align 8
  call void @llvm.lifetime.start.p0(i64 8, ptr %7) #5
  store ptr null, ptr %7, align 8
  call void @llvm.lifetime.start.p0(i64 8, ptr %8) #5
  store ptr null, ptr %8, align 8
  call void @llvm.lifetime.start.p0(i64 8, ptr %9) #5
  store ptr null, ptr %9, align 8
  call void @llvm.lifetime.start.p0(i64 8, ptr %10) #5
  store ptr null, ptr %10, align 8
  call void @llvm.lifetime.start.p0(i64 4, ptr %11) #5
  store i32 0, ptr %11, align 4
  call void @llvm.lifetime.start.p0(i64 4, ptr %12) #5
  call void @llvm.lifetime.start.p0(i64 2, ptr %13) #5
  call void @llvm.lifetime.start.p0(i64 2, ptr %14) #5
  call void @llvm.lifetime.start.p0(i64 2, ptr %15) #5
  %17 = load ptr, ptr %4, align 8
  %18 = call i32 @tvb_reported_length(ptr noundef %17)
  %19 = icmp ult i32 %18, 44
  br i1 %19, label %20, label %28

20:                                               ; preds = %3
  %21 = load ptr, ptr %6, align 8
  %22 = load ptr, ptr %5, align 8
  %23 = load ptr, ptr %4, align 8
  %24 = load i32, ptr %11, align 4
  %25 = load ptr, ptr %4, align 8
  %26 = call i32 @tvb_reported_length(ptr noundef %25)
  %27 = call ptr (ptr, ptr, ptr, ptr, i32, i32, ptr, ...) @proto_tree_add_expert_format(ptr noundef %21, ptr noundef %22, ptr noundef @ei_uftp_length_invalid, ptr noundef %23, i32 noundef %24, i32 noundef -1, ptr noundef @.str.427, i32 noundef %26)
  store i32 1, ptr %16, align 4
  br label %157

28:                                               ; preds = %3
  %29 = load ptr, ptr %4, align 8
  %30 = call zeroext i8 @tvb_get_uint8(ptr noundef %29, i32 noundef 1)
  %31 = zext i8 %30 to i32
  %32 = mul i32 %31, 4
  store i32 %32, ptr %12, align 4
  %33 = load ptr, ptr %4, align 8
  %34 = call zeroext i16 @tvb_get_ntohs(ptr noundef %33, i32 noundef 2)
  store i16 %34, ptr %14, align 2
  %35 = load ptr, ptr %4, align 8
  %36 = call i32 @tvb_reported_length(ptr noundef %35)
  %37 = load i32, ptr %12, align 4
  %38 = icmp slt i32 %36, %37
  br i1 %38, label %45, label %39

39:                                               ; preds = %28
  %40 = load i32, ptr %12, align 4
  %41 = load i16, ptr %14, align 2
  %42 = zext i16 %41 to i32
  %43 = add i32 44, %42
  %44 = icmp slt i32 %40, %43
  br i1 %44, label %45, label %56

45:                                               ; preds = %39, %28
  %46 = load ptr, ptr %6, align 8
  %47 = load ptr, ptr %5, align 8
  %48 = load ptr, ptr %4, align 8
  %49 = load i32, ptr %11, align 4
  %50 = load ptr, ptr %4, align 8
  %51 = call i32 @tvb_reported_length(ptr noundef %50)
  %52 = load i32, ptr %12, align 4
  %53 = load i16, ptr %14, align 2
  %54 = zext i16 %53 to i32
  %55 = call ptr (ptr, ptr, ptr, ptr, i32, i32, ptr, ...) @proto_tree_add_expert_format(ptr noundef %46, ptr noundef %47, ptr noundef @ei_uftp_length_invalid, ptr noundef %48, i32 noundef %49, i32 noundef -1, ptr noundef @.str.432, i32 noundef %51, i32 noundef %52, i32 noundef %54)
  store i32 1, ptr %16, align 4
  br label %157

56:                                               ; preds = %39
  %57 = load ptr, ptr %6, align 8
  %58 = load i32, ptr @hf_uftp_register, align 4
  %59 = load ptr, ptr %4, align 8
  %60 = load i32, ptr %11, align 4
  %61 = call ptr @proto_tree_add_item(ptr noundef %57, i32 noundef %58, ptr noundef %59, i32 noundef %60, i32 noundef -1, i32 noundef 0)
  store ptr %61, ptr %7, align 8
  %62 = load ptr, ptr %7, align 8
  %63 = load i32, ptr @ett_uftp_register, align 4
  %64 = call ptr @proto_item_add_subtree(ptr noundef %62, i32 noundef %63)
  store ptr %64, ptr %9, align 8
  %65 = load ptr, ptr %9, align 8
  %66 = load i32, ptr @hf_uftp_register_func, align 4
  %67 = load ptr, ptr %4, align 8
  %68 = load i32, ptr %11, align 4
  %69 = call ptr @proto_tree_add_item(ptr noundef %65, i32 noundef %66, ptr noundef %67, i32 noundef %68, i32 noundef 1, i32 noundef 0)
  %70 = load i32, ptr %11, align 4
  %71 = add i32 %70, 1
  store i32 %71, ptr %11, align 4
  %72 = load ptr, ptr %9, align 8
  %73 = load i32, ptr @hf_uftp_register_hlen, align 4
  %74 = load ptr, ptr %4, align 8
  %75 = load i32, ptr %11, align 4
  %76 = load i32, ptr %12, align 4
  %77 = load i32, ptr %12, align 4
  %78 = load i32, ptr %12, align 4
  %79 = sdiv i32 %78, 4
  %80 = call ptr (ptr, i32, ptr, i32, i32, i32, ptr, ...) @proto_tree_add_uint_format_value(ptr noundef %72, i32 noundef %73, ptr noundef %74, i32 noundef %75, i32 noundef 1, i32 noundef %76, ptr noundef @.str.429, i32 noundef %77, i32 noundef %79)
  %81 = load i32, ptr %11, align 4
  %82 = add i32 %81, 1
  store i32 %82, ptr %11, align 4
  %83 = load ptr, ptr %9, align 8
  %84 = load i32, ptr @hf_uftp_register_keyinfo_len, align 4
  %85 = load ptr, ptr %4, align 8
  %86 = load i32, ptr %11, align 4
  %87 = call ptr @proto_tree_add_item(ptr noundef %83, i32 noundef %84, ptr noundef %85, i32 noundef %86, i32 noundef 2, i32 noundef 0)
  %88 = load i32, ptr %11, align 4
  %89 = add i32 %88, 2
  store i32 %89, ptr %11, align 4
  %90 = load ptr, ptr %9, align 8
  %91 = load i32, ptr @hf_uftp_register_tstamp, align 4
  %92 = load ptr, ptr %4, align 8
  %93 = load i32, ptr %11, align 4
  %94 = call ptr @proto_tree_add_item(ptr noundef %90, i32 noundef %91, ptr noundef %92, i32 noundef %93, i32 noundef 8, i32 noundef 16)
  %95 = load i32, ptr %11, align 4
  %96 = add i32 %95, 8
  store i32 %96, ptr %11, align 4
  %97 = load ptr, ptr %9, align 8
  %98 = load i32, ptr @hf_uftp_register_rand2, align 4
  %99 = load ptr, ptr %4, align 8
  %100 = load i32, ptr %11, align 4
  %101 = call ptr @proto_tree_add_item(ptr noundef %97, i32 noundef %98, ptr noundef %99, i32 noundef %100, i32 noundef 32, i32 noundef 0)
  %102 = load i32, ptr %11, align 4
  %103 = add i32 %102, 32
  store i32 %103, ptr %11, align 4
  %104 = load i16, ptr %14, align 2
  %105 = zext i16 %104 to i32
  %106 = icmp sgt i32 %105, 0
  br i1 %106, label %107, label %115

107:                                              ; preds = %56
  %108 = load ptr, ptr %9, align 8
  %109 = load i32, ptr @hf_uftp_register_keyinfo, align 4
  %110 = load ptr, ptr %4, align 8
  %111 = load i32, ptr %11, align 4
  %112 = load i16, ptr %14, align 2
  %113 = zext i16 %112 to i32
  %114 = call ptr @proto_tree_add_item(ptr noundef %108, i32 noundef %109, ptr noundef %110, i32 noundef %111, i32 noundef %113, i32 noundef 0)
  br label %115

115:                                              ; preds = %107, %56
  %116 = load ptr, ptr %4, align 8
  %117 = call i32 @tvb_reported_length(ptr noundef %116)
  %118 = load i32, ptr %12, align 4
  %119 = sub i32 %117, %118
  %120 = udiv i32 %119, 4
  %121 = trunc i32 %120 to i16
  store i16 %121, ptr %13, align 2
  %122 = load i32, ptr %12, align 4
  store i32 %122, ptr %11, align 4
  %123 = load i16, ptr %13, align 2
  %124 = zext i16 %123 to i32
  %125 = icmp sgt i32 %124, 0
  br i1 %125, label %126, label %138

126:                                              ; preds = %115
  %127 = load ptr, ptr %9, align 8
  %128 = load i32, ptr @hf_uftp_destlist, align 4
  %129 = load ptr, ptr %4, align 8
  %130 = load i32, ptr %11, align 4
  %131 = load i16, ptr %13, align 2
  %132 = zext i16 %131 to i32
  %133 = mul i32 %132, 4
  %134 = call ptr @proto_tree_add_item(ptr noundef %127, i32 noundef %128, ptr noundef %129, i32 noundef %130, i32 noundef %133, i32 noundef 0)
  store ptr %134, ptr %8, align 8
  %135 = load ptr, ptr %8, align 8
  %136 = load i32, ptr @ett_uftp_destlist, align 4
  %137 = call ptr @proto_item_add_subtree(ptr noundef %135, i32 noundef %136)
  store ptr %137, ptr %10, align 8
  br label %138

138:                                              ; preds = %126, %115
  store i16 0, ptr %15, align 2
  br label %139

139:                                              ; preds = %153, %138
  %140 = load i16, ptr %15, align 2
  %141 = zext i16 %140 to i32
  %142 = load i16, ptr %13, align 2
  %143 = zext i16 %142 to i32
  %144 = icmp slt i32 %141, %143
  br i1 %144, label %145, label %156

145:                                              ; preds = %139
  %146 = load ptr, ptr %10, align 8
  %147 = load i32, ptr @hf_uftp_dest, align 4
  %148 = load ptr, ptr %4, align 8
  %149 = load i32, ptr %11, align 4
  %150 = call ptr @proto_tree_add_item(ptr noundef %146, i32 noundef %147, ptr noundef %148, i32 noundef %149, i32 noundef 4, i32 noundef 0)
  %151 = load i32, ptr %11, align 4
  %152 = add i32 %151, 4
  store i32 %152, ptr %11, align 4
  br label %153

153:                                              ; preds = %145
  %154 = load i16, ptr %15, align 2
  %155 = add i16 %154, 1
  store i16 %155, ptr %15, align 2
  br label %139, !llvm.loop !10

156:                                              ; preds = %139
  store i32 0, ptr %16, align 4
  br label %157

157:                                              ; preds = %156, %45, %20
  call void @llvm.lifetime.end.p0(i64 2, ptr %15) #5
  call void @llvm.lifetime.end.p0(i64 2, ptr %14) #5
  call void @llvm.lifetime.end.p0(i64 2, ptr %13) #5
  call void @llvm.lifetime.end.p0(i64 4, ptr %12) #5
  call void @llvm.lifetime.end.p0(i64 4, ptr %11) #5
  call void @llvm.lifetime.end.p0(i64 8, ptr %10) #5
  call void @llvm.lifetime.end.p0(i64 8, ptr %9) #5
  call void @llvm.lifetime.end.p0(i64 8, ptr %8) #5
  call void @llvm.lifetime.end.p0(i64 8, ptr %7) #5
  %158 = load i32, ptr %16, align 4
  switch i32 %158, label %160 [
    i32 0, label %159
    i32 1, label %159
  ]

159:                                              ; preds = %157, %157
  ret void

160:                                              ; preds = %157
  unreachable
}