; Function Attrs: null_pointer_is_valid sspstrong uwtable
define internal fastcc void @dissect_uftp_register(ptr noundef %0, ptr noundef %1, ptr noundef %2) unnamed_addr #0 {
  %4 = tail call i32 @tvb_reported_length(ptr noundef %0)
  %5 = icmp ult i32 %4, 44
  br i1 %5, label %6, label %9

6:                                                ; preds = %3
  %7 = tail call i32 @tvb_reported_length(ptr noundef %0)
  %8 = tail call ptr (ptr, ptr, ptr, ptr, i32, i32, ptr, ...) @proto_tree_add_expert_format(ptr noundef %2, ptr noundef %1, ptr noundef nonnull @ei_uftp_length_invalid, ptr noundef %0, i32 noundef 0, i32 noundef -1, ptr noundef nonnull @.str.427, i32 noundef %7)
  br label %.loopexit

9:                                                ; preds = %3
  %10 = tail call zeroext i8 @tvb_get_uint8(ptr noundef %0, i32 noundef 1)
  %11 = zext i8 %10 to i32
  %12 = shl nuw nsw i32 %11, 2
  %13 = tail call zeroext i16 @tvb_get_ntohs(ptr noundef %0, i32 noundef 2)
  %14 = tail call i32 @tvb_reported_length(ptr noundef %0)
  %15 = icmp slt i32 %14, %12
  %.pre = zext i16 %13 to i32
  %16 = add nuw nsw i32 %.pre, 44
  %17 = icmp samesign ult i32 %12, %16
  %or.cond = select i1 %15, i1 true, i1 %17
  br i1 %or.cond, label %._crit_edge, label %20

._crit_edge:                                      ; preds = %9
  %18 = tail call i32 @tvb_reported_length(ptr noundef %0)
  %19 = tail call ptr (ptr, ptr, ptr, ptr, i32, i32, ptr, ...) @proto_tree_add_expert_format(ptr noundef %2, ptr noundef %1, ptr noundef nonnull @ei_uftp_length_invalid, ptr noundef %0, i32 noundef 0, i32 noundef -1, ptr noundef nonnull @.str.432, i32 noundef %18, i32 noundef %12, i32 noundef %.pre)
  br label %.loopexit

20:                                               ; preds = %9
  %21 = load i32, ptr @hf_uftp_register, align 4
  %22 = tail call ptr @proto_tree_add_item(ptr noundef %2, i32 noundef %21, ptr noundef %0, i32 noundef 0, i32 noundef -1, i32 noundef 0)
  %23 = load i32, ptr @ett_uftp_register, align 4
  %24 = tail call ptr @proto_item_add_subtree(ptr noundef %22, i32 noundef %23)
  %25 = load i32, ptr @hf_uftp_register_func, align 4
  %26 = tail call ptr @proto_tree_add_item(ptr noundef %24, i32 noundef %25, ptr noundef %0, i32 noundef 0, i32 noundef 1, i32 noundef 0)
  %27 = load i32, ptr @hf_uftp_register_hlen, align 4
  %28 = tail call ptr (ptr, i32, ptr, i32, i32, i32, ptr, ...) @proto_tree_add_uint_format_value(ptr noundef %24, i32 noundef %27, ptr noundef %0, i32 noundef 1, i32 noundef 1, i32 noundef %12, ptr noundef nonnull @.str.429, i32 noundef %12, i32 noundef %11)
  %29 = load i32, ptr @hf_uftp_register_keyinfo_len, align 4
  %30 = tail call ptr @proto_tree_add_item(ptr noundef %24, i32 noundef %29, ptr noundef %0, i32 noundef 2, i32 noundef 2, i32 noundef 0)
  %31 = load i32, ptr @hf_uftp_register_tstamp, align 4
  %32 = tail call ptr @proto_tree_add_item(ptr noundef %24, i32 noundef %31, ptr noundef %0, i32 noundef 4, i32 noundef 8, i32 noundef 16)
  %33 = load i32, ptr @hf_uftp_register_rand2, align 4
  %34 = tail call ptr @proto_tree_add_item(ptr noundef %24, i32 noundef %33, ptr noundef %0, i32 noundef 12, i32 noundef 32, i32 noundef 0)
  %.not = icmp eq i16 %13, 0
  br i1 %.not, label %38, label %35

35:                                               ; preds = %20
  %36 = load i32, ptr @hf_uftp_register_keyinfo, align 4
  %37 = tail call ptr @proto_tree_add_item(ptr noundef %24, i32 noundef %36, ptr noundef %0, i32 noundef 44, i32 noundef %.pre, i32 noundef 0)
  br label %38

38:                                               ; preds = %35, %20
  %39 = tail call i32 @tvb_reported_length(ptr noundef %0)
  %40 = sub i32 %39, %12
  %41 = lshr i32 %40, 2
  %42 = and i32 %41, 65535
  %.not71 = icmp eq i32 %42, 0
  br i1 %.not71, label %.loopexit, label %.lr.ph.preheader

.lr.ph.preheader:                                 ; preds = %38
  %43 = load i32, ptr @hf_uftp_destlist, align 4
  %44 = shl nuw nsw i32 %42, 2
  %45 = tail call ptr @proto_tree_add_item(ptr noundef %24, i32 noundef %43, ptr noundef %0, i32 noundef %12, i32 noundef %44, i32 noundef 0)
  %46 = load i32, ptr @ett_uftp_destlist, align 4
  %47 = tail call ptr @proto_item_add_subtree(ptr noundef %45, i32 noundef %46)
  br label %.lr.ph

.lr.ph:                                           ; preds = %.lr.ph.preheader, %.lr.ph
  %indvars.iv = phi i32 [ 0, %.lr.ph.preheader ], [ %indvars.iv.next, %.lr.ph ]
  %.06672 = phi i32 [ %12, %.lr.ph.preheader ], [ %50, %.lr.ph ]
  %48 = load i32, ptr @hf_uftp_dest, align 4
  %49 = tail call ptr @proto_tree_add_item(ptr noundef %47, i32 noundef %48, ptr noundef %0, i32 noundef %.06672, i32 noundef 4, i32 noundef 0)
  %50 = add nuw nsw i32 %.06672, 4
  %indvars.iv.next = add nuw nsw i32 %indvars.iv, 1
  %exitcond.not = icmp eq i32 %indvars.iv.next, %42
  br i1 %exitcond.not, label %.loopexit, label %.lr.ph, !llvm.loop !9

.loopexit:                                        ; preds = %.lr.ph, %38, %._crit_edge, %6
  ret void
}